; Function Attrs: inlinehint nounwind uwtable
define internal fastcc void @Gia_ManGenSorterConstrRange(ptr noundef %0, ptr noundef %1, i32 noundef range(i32 0, -2147483648) %2, i32 noundef %3) unnamed_addr #4 {
  %5 = sub nsw i32 %3, %2
  %6 = icmp sgt i32 %5, 0
  br i1 %6, label %7, label %common.ret30

7:                                                ; preds = %4
  %8 = lshr i32 %5, 1
  %9 = add nuw i32 %8, %2
  %10 = add nuw nsw i32 %5, 1
  %11 = lshr i32 %10, 1
  %12 = zext nneg i32 %2 to i64
  %13 = zext nneg i32 %11 to i64
  %14 = add nuw i32 %9, 1
  %wide.trip.count = zext i32 %14 to i64
  %invariant.gep = getelementptr inbounds nuw i32, ptr %1, i64 %13
  br label %15

15:                                               ; preds = %7, %15
  %indvars.iv = phi i64 [ %12, %7 ], [ %indvars.iv.next, %15 ]
  %16 = getelementptr inbounds nuw i32, ptr %1, i64 %indvars.iv
  %17 = load i32, ptr %16, align 4, !tbaa !19
  %gep = getelementptr inbounds nuw i32, ptr %invariant.gep, i64 %indvars.iv
  %18 = load i32, ptr %gep, align 4, !tbaa !19
  %19 = tail call fastcc i32 @Gia_ManAppendAnd(ptr noundef %0, i32 noundef %17, i32 noundef %18)
  %20 = load i32, ptr %16, align 4, !tbaa !19
  %21 = load i32, ptr %gep, align 4, !tbaa !19
  %22 = xor i32 %20, 1
  %23 = xor i32 %21, 1
  %24 = tail call fastcc i32 @Gia_ManAppendAnd(ptr noundef %0, i32 noundef %22, i32 noundef %23)
  %25 = xor i32 %24, 1
  store i32 %19, ptr %16, align 4, !tbaa !19
  store i32 %25, ptr %gep, align 4, !tbaa !19
  %indvars.iv.next = add nuw nsw i64 %indvars.iv, 1
  %exitcond.not = icmp eq i64 %indvars.iv.next, %wide.trip.count
  br i1 %exitcond.not, label %26, label %15, !llvm.loop !156

common.ret30:                                     ; preds = %4, %26
  ret void

26:                                               ; preds = %15
  tail call fastcc void @Gia_ManGenSorterConstrRange(ptr noundef %0, ptr noundef nonnull %1, i32 noundef %2, i32 noundef %9)
  %27 = add nuw nsw i32 %9, 1
  tail call fastcc void @Gia_ManGenSorterConstrRange(ptr noundef %0, ptr noundef nonnull %1, i32 noundef %27, i32 noundef %3)
  tail call fastcc void @Gia_ManGenSorterConstrMerge(ptr noundef %0, ptr noundef nonnull %1, i32 noundef %2, i32 noundef %3, i32 noundef 1)
  br label %common.ret30
}